; Function Attrs: nounwind sspstrong uwtable
define internal range(i64 0, 21) i64 @string_query_local_p(i64 %0, i64 noundef %1) #0 {
  %3 = icmp eq i64 %1, 0
  %4 = and i64 %1, 7
  %5 = icmp ne i64 %4, 0
  %6 = or i1 %3, %5
  br i1 %6, label %rbimpl_RB_TYPE_P_fastpath.exit.thread.i, label %rbimpl_RB_TYPE_P_fastpath.exit.i

rbimpl_RB_TYPE_P_fastpath.exit.i:                 ; preds = %2
  %7 = inttoptr i64 %1 to ptr
  %8 = load i64, ptr %7, align 8, !tbaa !47
  %9 = and i64 %8, 31
  %10 = icmp eq i64 %9, 5
  br i1 %10, label %13, label %rbimpl_RB_TYPE_P_fastpath.exit.thread.i

rbimpl_RB_TYPE_P_fastpath.exit.thread.i:          ; preds = %rbimpl_RB_TYPE_P_fastpath.exit.i, %2
  %11 = load i64, ptr @rb_eTypeError, align 8, !tbaa !7
  %12 = tail call i64 @rb_obj_class(i64 noundef %1) #9
  tail call void (i64, ptr, ...) @rb_raise(i64 noundef %11, ptr noundef nonnull @.str.60, i64 noundef %12) #11
  unreachable

13:                                               ; preds = %rbimpl_RB_TYPE_P_fastpath.exit.i
  %14 = and i64 %8, 8192
  %.not.i.i.i = icmp eq i64 %14, 0
  %15 = getelementptr inbounds nuw i8, ptr %7, i64 24
  br i1 %.not.i.i.i, label %check_string.exit, label %16

16:                                               ; preds = %13
  %.sroa.2.0.copyload.i.i = load ptr, ptr %15, align 8
  br label %check_string.exit

check_string.exit:                                ; preds = %13, %16
  %.sroa.2.0.i.i = phi ptr [ %.sroa.2.0.copyload.i.i, %16 ], [ %15, %13 ]
  %17 = getelementptr inbounds nuw i8, ptr %7, i64 16
  %18 = load i64, ptr %17, align 8, !tbaa !49
  %19 = tail call ptr @rb_enc_get(i64 noundef %1) #9
  %20 = getelementptr inbounds nuw i8, ptr %19, i64 8
  %21 = load ptr, ptr %20, align 8, !tbaa !51
  %22 = tail call i32 @pm_string_query_local(ptr noundef %.sroa.2.0.i.i, i64 noundef %18, ptr noundef %21) #9
  switch i32 %22, label %25 [
    i32 -1, label %23
    i32 1, label %string_query.exit
  ]

23:                                               ; preds = %check_string.exit
  %24 = load i64, ptr @rb_eArgError, align 8, !tbaa !7
  tail call void (i64, ptr, ...) @rb_raise(i64 noundef %24, ptr noundef nonnull @.str.88) #11
  unreachable

25:                                               ; preds = %check_string.exit
  br label %string_query.exit

string_query.exit:                                ; preds = %check_string.exit, %25
  %.0.i = phi i64 [ 0, %25 ], [ 20, %check_string.exit ]
  ret i64 %.0.i
}